; Function Attrs: mustprogress uwtable
define noundef ptr @_ZN17SampleEditFactory11getEditToolEPK7QAction(ptr nocapture noundef nonnull readonly align 8 dereferenceable(72) %0, ptr noundef readnone %1) unnamed_addr #9 align 2 personality ptr @__gxx_personality_v0 {
  %3 = getelementptr inbounds i8, ptr %0, i64 64
  %4 = load ptr, ptr %3, align 8
  %5 = icmp eq ptr %4, %1
  br i1 %5, label %6, label %12

6:                                                ; preds = %2
  %7 = tail call noalias noundef nonnull dereferenceable(136) ptr @_Znwm(i64 noundef 136) #20
  invoke void @_ZN16SampleEditPluginC1Ev(ptr noundef nonnull align 8 dereferenceable(132) %7)
          to label %8 unwind label %10

8:                                                ; preds = %6
  %9 = getelementptr inbounds i8, ptr %7, i64 16
  br label %12

10:                                               ; preds = %6
  %11 = landingpad { ptr, i32 }
          cleanup
  tail call void @_ZdlPv(ptr noundef nonnull %7) #16
  resume { ptr, i32 } %11

12:                                               ; preds = %2, %8
  %.0 = phi ptr [ %9, %8 ], [ null, %2 ]
  ret ptr %.0
}